target datalayout = "e-m:e-p270:32:32-p271:32:32-p272:64:64-i64:64-i128:128-f80:128-n8:16:32:64-S128"
target triple = "x86_64-pc-linux-gnu"

%struct.Lexer = type { %struct.StringPiece, %struct.StringPiece, ptr, ptr }
%struct.StringPiece = type { ptr, i64 }

@_ZZN5Lexer13EatWhitespaceEvE4yybm = internal constant <{ [33 x i8], [223 x i8] }> <{ [33 x i8] c"\00\00\00\00\00\00\00\00\00\00\00\00\00\00\00\00\00\00\00\00\00\00\00\00\00\00\00\00\00\00\00\00\80", [223 x i8] zeroinitializer }>, align 16

; Function Attrs: mustprogress nounwind uwtable
define dso_local void @_ZN5Lexer13EatWhitespaceEv(ptr noundef nonnull align 8 dereferenceable(48) %0) #3 align 2 {
  %2 = alloca ptr, align 8
  %3 = alloca ptr, align 8
  %4 = alloca ptr, align 8
  %5 = alloca i8, align 1
  %6 = alloca i32, align 4
  store ptr %0, ptr %2, align 8, !tbaa !4
  %7 = load ptr, ptr %2, align 8
  call void @llvm.lifetime.start.p0(i64 8, ptr %3) #13
  %8 = getelementptr inbounds nuw %struct.Lexer, ptr %7, i32 0, i32 2
  %9 = load ptr, ptr %8, align 8, !tbaa !36
  store ptr %9, ptr %3, align 8, !tbaa !18
  call void @llvm.lifetime.start.p0(i64 8, ptr %4) #13
  br label %10

10:                                               ; preds = %88, %1
  %11 = load ptr, ptr %3, align 8, !tbaa !18
  %12 = getelementptr inbounds nuw %struct.Lexer, ptr %7, i32 0, i32 2
  store ptr %11, ptr %12, align 8, !tbaa !36
  call void @llvm.lifetime.start.p0(i64 1, ptr %5) #13
  %13 = load ptr, ptr %3, align 8, !tbaa !18
  %14 = load i8, ptr %13, align 1, !tbaa !20
  store i8 %14, ptr %5, align 1, !tbaa !20
  %15 = load i8, ptr %5, align 1, !tbaa !20
  %16 = zext i8 %15 to i32
  %17 = add nsw i32 0, %16
  %18 = sext i32 %17 to i64
  %19 = getelementptr inbounds [256 x i8], ptr @_ZZN5Lexer13EatWhitespaceEvE4yybm, i64 0, i64 %18
  %20 = load i8, ptr %19, align 1, !tbaa !20
  %21 = zext i8 %20 to i32
  %22 = and i32 %21, 128
  %23 = icmp ne i32 %22, 0
  br i1 %23, label %24, label %25

24:                                               ; preds = %10
  br label %43

25:                                               ; preds = %10
  %26 = load i8, ptr %5, align 1, !tbaa !20
  %27 = zext i8 %26 to i32
  %28 = icmp sle i32 %27, 0
  br i1 %28, label %29, label %30

29:                                               ; preds = %25
  br label %36

30:                                               ; preds = %25
  %31 = load i8, ptr %5, align 1, !tbaa !20
  %32 = zext i8 %31 to i32
  %33 = icmp eq i32 %32, 36
  br i1 %33, label %34, label %35

34:                                               ; preds = %30
  br label %58

35:                                               ; preds = %30
  br label %39

36:                                               ; preds = %29
  %37 = load ptr, ptr %3, align 8, !tbaa !18
  %38 = getelementptr inbounds nuw i8, ptr %37, i32 1
  store ptr %38, ptr %3, align 8, !tbaa !18
  store i32 2, ptr %6, align 4
  br label %88

39:                                               ; preds = %35
  %40 = load ptr, ptr %3, align 8, !tbaa !18
  %41 = getelementptr inbounds nuw i8, ptr %40, i32 1
  store ptr %41, ptr %3, align 8, !tbaa !18
  br label %42

42:                                               ; preds = %83, %71, %39
  store i32 2, ptr %6, align 4
  br label %88

43:                                               ; preds = %56, %24
  %44 = load ptr, ptr %3, align 8, !tbaa !18
  %45 = getelementptr inbounds nuw i8, ptr %44, i32 1
  store ptr %45, ptr %3, align 8, !tbaa !18
  %46 = load i8, ptr %45, align 1, !tbaa !20
  store i8 %46, ptr %5, align 1, !tbaa !20
  %47 = load i8, ptr %5, align 1, !tbaa !20
  %48 = zext i8 %47 to i32
  %49 = add nsw i32 0, %48
  %50 = sext i32 %49 to i64
  %51 = getelementptr inbounds [256 x i8], ptr @_ZZN5Lexer13EatWhitespaceEvE4yybm, i64 0, i64 %50
  %52 = load i8, ptr %51, align 1, !tbaa !20
  %53 = zext i8 %52 to i32
  %54 = and i32 %53, 128
  %55 = icmp ne i32 %54, 0
  br i1 %55, label %56, label %57

56:                                               ; preds = %43
  br label %43

57:                                               ; preds = %43
  store i32 3, ptr %6, align 4
  br label %88, !llvm.loop !40

58:                                               ; preds = %34
  %59 = load ptr, ptr %3, align 8, !tbaa !18
  %60 = getelementptr inbounds nuw i8, ptr %59, i32 1
  store ptr %60, ptr %3, align 8, !tbaa !18
  store ptr %60, ptr %4, align 8, !tbaa !18
  %61 = load i8, ptr %60, align 1, !tbaa !20
  store i8 %61, ptr %5, align 1, !tbaa !20
  %62 = load i8, ptr %5, align 1, !tbaa !20
  %63 = zext i8 %62 to i32
  %64 = icmp eq i32 %63, 10
  br i1 %64, label %65, label %66

65:                                               ; preds = %58
  br label %72

66:                                               ; preds = %58
  %67 = load i8, ptr %5, align 1, !tbaa !20
  %68 = zext i8 %67 to i32
  %69 = icmp eq i32 %68, 13
  br i1 %69, label %70, label %71

70:                                               ; preds = %66
  br label %75

71:                                               ; preds = %66
  br label %42

72:                                               ; preds = %65
  %73 = load ptr, ptr %3, align 8, !tbaa !18
  %74 = getelementptr inbounds nuw i8, ptr %73, i32 1
  store ptr %74, ptr %3, align 8, !tbaa !18
  store i32 3, ptr %6, align 4
  br label %88, !llvm.loop !40

75:                                               ; preds = %70
  %76 = load ptr, ptr %3, align 8, !tbaa !18
  %77 = getelementptr inbounds nuw i8, ptr %76, i32 1
  store ptr %77, ptr %3, align 8, !tbaa !18
  %78 = load i8, ptr %77, align 1, !tbaa !20
  store i8 %78, ptr %5, align 1, !tbaa !20
  %79 = load i8, ptr %5, align 1, !tbaa !20
  %80 = zext i8 %79 to i32
  %81 = icmp eq i32 %80, 10
  br i1 %81, label %82, label %83

82:                                               ; preds = %75
  br label %85

83:                                               ; preds = %75
  %84 = load ptr, ptr %4, align 8, !tbaa !18
  store ptr %84, ptr %3, align 8, !tbaa !18
  br label %42

85:                                               ; preds = %82
  %86 = load ptr, ptr %3, align 8, !tbaa !18
  %87 = getelementptr inbounds nuw i8, ptr %86, i32 1
  store ptr %87, ptr %3, align 8, !tbaa !18
  store i32 3, ptr %6, align 4
  br label %88, !llvm.loop !40

88:                                               ; preds = %85, %72, %57, %42, %36
  call void @llvm.lifetime.end.p0(i64 1, ptr %5) #13
  %89 = load i32, ptr %6, align 4
  switch i32 %89, label %91 [
    i32 2, label %90
    i32 3, label %10
  ]

90:                                               ; preds = %88
  call void @llvm.lifetime.end.p0(i64 8, ptr %4) #13
  call void @llvm.lifetime.end.p0(i64 8, ptr %3) #13
  ret void

91:                                               ; preds = %88
  unreachable
}