; Function Attrs: mustprogress nofree norecurse nosync nounwind memory(read, argmem: readwrite, inaccessiblemem: none) uwtable
define dso_local void @_ZN5Lexer13EatWhitespaceEv(ptr noundef nonnull align 8 captures(none) dereferenceable(48) %0) local_unnamed_addr #8 align 2 {
  %2 = getelementptr inbounds nuw i8, ptr %0, i64 32
  %3 = load ptr, ptr %2, align 8, !tbaa !32
  br label %.backedge

.backedge:                                        ; preds = %.backedge.backedge, %1
  %.018 = phi ptr [ %3, %1 ], [ %.018.be, %.backedge.backedge ]
  store ptr %.018, ptr %2, align 8, !tbaa !32
  %4 = load i8, ptr %.018, align 1, !tbaa !23
  %5 = zext i8 %4 to i64
  %6 = getelementptr inbounds nuw [256 x i8], ptr @_ZZN5Lexer13EatWhitespaceEvE4yybm, i64 0, i64 %5
  %7 = load i8, ptr %6, align 1, !tbaa !23
  %.not = icmp sgt i8 %7, -1
  br i1 %.not, label %8, label %.preheader

8:                                                ; preds = %.backedge
  %cond = icmp eq i8 %4, 36
  br i1 %cond, label %14, label %.thread

.preheader:                                       ; preds = %.backedge, %.preheader
  %.1 = phi ptr [ %9, %.preheader ], [ %.018, %.backedge ]
  %9 = getelementptr inbounds nuw i8, ptr %.1, i64 1
  %10 = load i8, ptr %9, align 1, !tbaa !23
  %11 = zext i8 %10 to i64
  %12 = getelementptr inbounds nuw [256 x i8], ptr @_ZZN5Lexer13EatWhitespaceEvE4yybm, i64 0, i64 %11
  %13 = load i8, ptr %12, align 1, !tbaa !23
  %.not21 = icmp sgt i8 %13, -1
  br i1 %.not21, label %.backedge.backedge, label %.preheader, !llvm.loop !33

14:                                               ; preds = %8
  %15 = getelementptr inbounds nuw i8, ptr %.018, i64 1
  %16 = load i8, ptr %15, align 1, !tbaa !23
  switch i8 %16, label %.thread [
    i8 10, label %17
    i8 13, label %19
  ]

17:                                               ; preds = %14
  %18 = getelementptr inbounds nuw i8, ptr %.018, i64 2
  br label %.backedge.backedge

19:                                               ; preds = %14
  %20 = getelementptr inbounds nuw i8, ptr %.018, i64 2
  %21 = load i8, ptr %20, align 1, !tbaa !23
  %.not27 = icmp eq i8 %21, 10
  %22 = getelementptr inbounds nuw i8, ptr %.018, i64 3
  br i1 %.not27, label %.backedge.backedge, label %.thread

.backedge.backedge:                               ; preds = %.preheader, %19, %17
  %.018.be = phi ptr [ %18, %17 ], [ %22, %19 ], [ %9, %.preheader ]
  br label %.backedge

.thread:                                          ; preds = %19, %8, %14
  ret void
}